; ModuleID = '31/577.c'
source_filename = "31/577.c"
target datalayout = "e-m:e-p270:32:32-p271:32:32-p272:64:64-i64:64-f80:128-n8:16:32:64-S128"
target triple = "x86_64-pc-linux-gnu"

%struct.s = type { [100 x i8], [100 x i8], i8, i32, [100 x i8], [100 x i8] }

@.str = private unnamed_addr constant [3 x i8] c"%s\00", align 1
@k = common dso_local global [1000 x %struct.s] zeroinitializer, align 16
@.str.1 = private unnamed_addr constant [4 x i8] c"end\00", align 1
@.str.2 = private unnamed_addr constant [16 x i8] c" %s %c %d %s %s\00", align 1
@.str.3 = private unnamed_addr constant [19 x i8] c"%s %s %c %d %s %s\0A\00", align 1
@n = common dso_local global i32 0, align 4

; Function Attrs: noinline nounwind uwtable
define dso_local i32 @main(i32 %0, i8** %1) #0 {
  %3 = alloca i32, align 4
  %4 = alloca i32, align 4
  %5 = alloca i8**, align 8
  %6 = alloca i32, align 4
  store i32 0, i32* %3, align 4
  store i32 %0, i32* %4, align 4
  store i8** %1, i8*** %5, align 8
  store i32 0, i32* %6, align 4
  br label %7

7:                                                ; preds = %47, %2
  %8 = load i32, i32* %6, align 4
  %9 = sext i32 %8 to i64
  %10 = getelementptr inbounds [1000 x %struct.s], [1000 x %struct.s]* @k, i64 0, i64 %9
  %11 = getelementptr inbounds %struct.s, %struct.s* %10, i32 0, i32 0
  %12 = getelementptr inbounds [100 x i8], [100 x i8]* %11, i64 0, i64 0
  %13 = call i32 (i8*, ...) @__isoc99_scanf(i8* getelementptr inbounds ([3 x i8], [3 x i8]* @.str, i64 0, i64 0), i8* %12)
  %14 = load i32, i32* %6, align 4
  %15 = sext i32 %14 to i64
  %16 = getelementptr inbounds [1000 x %struct.s], [1000 x %struct.s]* @k, i64 0, i64 %15
  %17 = getelementptr inbounds %struct.s, %struct.s* %16, i32 0, i32 0
  %18 = getelementptr inbounds [100 x i8], [100 x i8]* %17, i64 0, i64 0
  %19 = call i32 @strcmp(i8* %18, i8* getelementptr inbounds ([4 x i8], [4 x i8]* @.str.1, i64 0, i64 0)) #3
  %20 = icmp eq i32 %19, 0
  br i1 %20, label %21, label %22

21:                                               ; preds = %7
  br label %50

22:                                               ; preds = %7
  %23 = load i32, i32* %6, align 4
  %24 = sext i32 %23 to i64
  %25 = getelementptr inbounds [1000 x %struct.s], [1000 x %struct.s]* @k, i64 0, i64 %24
  %26 = getelementptr inbounds %struct.s, %struct.s* %25, i32 0, i32 1
  %27 = getelementptr inbounds [100 x i8], [100 x i8]* %26, i64 0, i64 0
  %28 = load i32, i32* %6, align 4
  %29 = sext i32 %28 to i64
  %30 = getelementptr inbounds [1000 x %struct.s], [1000 x %struct.s]* @k, i64 0, i64 %29
  %31 = getelementptr inbounds %struct.s, %struct.s* %30, i32 0, i32 2
  %32 = load i32, i32* %6, align 4
  %33 = sext i32 %32 to i64
  %34 = getelementptr inbounds [1000 x %struct.s], [1000 x %struct.s]* @k, i64 0, i64 %33
  %35 = getelementptr inbounds %struct.s, %struct.s* %34, i32 0, i32 3
  %36 = load i32, i32* %6, align 4
  %37 = sext i32 %36 to i64
  %38 = getelementptr inbounds [1000 x %struct.s], [1000 x %struct.s]* @k, i64 0, i64 %37
  %39 = getelementptr inbounds %struct.s, %struct.s* %38, i32 0, i32 4
  %40 = getelementptr inbounds [100 x i8], [100 x i8]* %39, i64 0, i64 0
  %41 = load i32, i32* %6, align 4
  %42 = sext i32 %41 to i64
  %43 = getelementptr inbounds [1000 x %struct.s], [1000 x %struct.s]* @k, i64 0, i64 %42
  %44 = getelementptr inbounds %struct.s, %struct.s* %43, i32 0, i32 5
  %45 = getelementptr inbounds [100 x i8], [100 x i8]* %44, i64 0, i64 0
  %46 = call i32 (i8*, ...) @__isoc99_scanf(i8* getelementptr inbounds ([16 x i8], [16 x i8]* @.str.2, i64 0, i64 0), i8* %27, i8* %31, i32* %35, i8* %40, i8* %45)
  br label %47

47:                                               ; preds = %22
  %48 = load i32, i32* %6, align 4
  %49 = add nsw i32 %48, 1
  store i32 %49, i32* %6, align 4
  br label %7

50:                                               ; preds = %21
  %51 = load i32, i32* %6, align 4
  %52 = sub nsw i32 %51, 1
  store i32 %52, i32* %6, align 4
  br label %53

53:                                               ; preds = %89, %50
  %54 = load i32, i32* %6, align 4
  %55 = icmp sge i32 %54, 0
  br i1 %55, label %56, label %92

56:                                               ; preds = %53
  %57 = load i32, i32* %6, align 4
  %58 = sext i32 %57 to i64
  %59 = getelementptr inbounds [1000 x %struct.s], [1000 x %struct.s]* @k, i64 0, i64 %58
  %60 = getelementptr inbounds %struct.s, %struct.s* %59, i32 0, i32 0
  %61 = getelementptr inbounds [100 x i8], [100 x i8]* %60, i64 0, i64 0
  %62 = load i32, i32* %6, align 4
  %63 = sext i32 %62 to i64
  %64 = getelementptr inbounds [1000 x %struct.s], [1000 x %struct.s]* @k, i64 0, i64 %63
  %65 = getelementptr inbounds %struct.s, %struct.s* %64, i32 0, i32 1
  %66 = getelementptr inbounds [100 x i8], [100 x i8]* %65, i64 0, i64 0
  %67 = load i32, i32* %6, align 4
  %68 = sext i32 %67 to i64
  %69 = getelementptr inbounds [1000 x %struct.s], [1000 x %struct.s]* @k, i64 0, i64 %68
  %70 = getelementptr inbounds %struct.s, %struct.s* %69, i32 0, i32 2
  %71 = load i8, i8* %70, align 8
  %72 = sext i8 %71 to i32
  %73 = load i32, i32* %6, align 4
  %74 = sext i32 %73 to i64
  %75 = getelementptr inbounds [1000 x %struct.s], [1000 x %struct.s]* @k, i64 0, i64 %74
  %76 = getelementptr inbounds %struct.s, %struct.s* %75, i32 0, i32 3
  %77 = load i32, i32* %76, align 4
  %78 = load i32, i32* %6, align 4
  %79 = sext i32 %78 to i64
  %80 = getelementptr inbounds [1000 x %struct.s], [1000 x %struct.s]* @k, i64 0, i64 %79
  %81 = getelementptr inbounds %struct.s, %struct.s* %80, i32 0, i32 4
  %82 = getelementptr inbounds [100 x i8], [100 x i8]* %81, i64 0, i64 0
  %83 = load i32, i32* %6, align 4
  %84 = sext i32 %83 to i64
  %85 = getelementptr inbounds [1000 x %struct.s], [1000 x %struct.s]* @k, i64 0, i64 %84
  %86 = getelementptr inbounds %struct.s, %struct.s* %85, i32 0, i32 5
  %87 = getelementptr inbounds [100 x i8], [100 x i8]* %86, i64 0, i64 0
  %88 = call i32 (i8*, ...) @printf(i8* getelementptr inbounds ([19 x i8], [19 x i8]* @.str.3, i64 0, i64 0), i8* %61, i8* %66, i32 %72, i32 %77, i8* %82, i8* %87)
  br label %89

89:                                               ; preds = %56
  %90 = load i32, i32* %6, align 4
  %91 = add nsw i32 %90, -1
  store i32 %91, i32* %6, align 4
  br label %53

92:                                               ; preds = %53
  ret i32 0
}

declare dso_local i32 @__isoc99_scanf(i8*, ...) #1

; Function Attrs: nounwind readonly
declare dso_local i32 @strcmp(i8*, i8*) #2

declare dso_local i32 @printf(i8*, ...) #1


!llvm.module.flags = !{!0}
!llvm.ident = !{!1}

!0 = !{i32 1, !"wchar_size", i32 4}
!1 = !{!"clang version 10.0.0-4ubuntu1 "}
